target datalayout = "e-m:e-p270:32:32-p271:32:32-p272:64:64-i64:64-i128:128-f80:128-n8:16:32:64-S128"
target triple = "x86_64-pc-linux-gnu"

%struct._object = type { %union.anon, ptr }
%union.anon = type { i64 }
%struct._PyDictViewObject = type { %struct._object, ptr }

@_Py_NoneStruct = external global %struct._object, align 8

; Function Attrs: nounwind uwtable
define internal ptr @odictitems_iter(ptr noundef %0) #0 {
  %2 = alloca ptr, align 8
  %3 = alloca ptr, align 8
  store ptr %0, ptr %3, align 8, !tbaa !44
  %4 = load ptr, ptr %3, align 8, !tbaa !44
  %5 = getelementptr inbounds nuw %struct._PyDictViewObject, ptr %4, i32 0, i32 1
  %6 = load ptr, ptr %5, align 8, !tbaa !66
  %7 = icmp eq ptr %6, null
  br i1 %7, label %8, label %9

8:                                                ; preds = %1
  store ptr @_Py_NoneStruct, ptr %2, align 8
  br label %14

9:                                                ; preds = %1
  %10 = load ptr, ptr %3, align 8, !tbaa !44
  %11 = getelementptr inbounds nuw %struct._PyDictViewObject, ptr %10, i32 0, i32 1
  %12 = load ptr, ptr %11, align 8, !tbaa !66
  %13 = call ptr @odictiter_new(ptr noundef %12, i32 noundef 6)
  store ptr %13, ptr %2, align 8
  br label %14

14:                                               ; preds = %9, %8
  %15 = load ptr, ptr %2, align 8
  ret ptr %15
}